******************************************************************************
          TMS320C6x COFF Linker PC v6.0.8                      
******************************************************************************
>> Linked Thu Jan 03 14:09:39 2019

OUTPUT FILE NAME:   <./Debug/TrailBlazer.out>
ENTRY POINT SYMBOL: "_c_int00"  address: 11811920


MEMORY CONFIGURATION

         name            origin    length      used     unused   attr    fill
----------------------  --------  ---------  --------  --------  ----  --------
  VECS                  11803c00   00000400  00000200  00000200  RWIX
  DSPRAM                11804000   0003bc00  0000f8ec  0002c314  RWIX
  SHAREDRAM             80000000   00020000  00000000  00020000  RWIX
  SDRAM                 c0000000   20000000  00000000  20000000  RWIX
  ARMRAM                ffff0000   00002000  00000000  00002000  RWIX


SECTION ALLOCATION MAP

 output                                  attributes/
section   page    origin      length       input sections
--------  ----  ----------  ----------   ----------------
.sysmem    0    80000000    00000000     UNINITIALIZED

.data      0    00000000    00000000     UNINITIALIZED

.vecs      0    11803c00    00000200     
                  11803c00    00000200     vecs.obj (.vecs)

.cio       0    11804000    00000000     UNINITIALIZED

.text      0    11804000    0000dd00     
                  11804000    00005e40     GPS_DVL.obj (.text)
                  11809e40    000010a0     sys_lib64.lib : DSPexPC.obj (.text)
                  1180aee0    00000ac0     main.obj (.text)
                  1180b9a0    00000940     Atmel_SPI_Flash.obj (.text)
                  1180c2e0    000008e0     SPI.obj (.text)
                  1180cbc0    000007a0     omapl137.obj (.text)
                  1180d360    00000560     rts64plus.lib : strtod.obj (.text:_strtod)
                  1180d8c0    000004c0     sys_lib64.lib : flash.obj (.text)
                  1180dd80    000003c0     rts64plus.lib : cos.obj (.text:_cos)
                  1180e140    00000360     sys_lib64.lib : omapl137_psc.obj (.text)
                  1180e4a0    00000360     rts64plus.lib : fmod.obj (.text:_fmod)
                  1180e800    00000360                   : sin.obj (.text:_sin)
                  1180eb60    00000320     sys_lib64.lib : fpga_uart.obj (.text)
                  1180ee80    000002c0     rts64plus.lib : atan.obj (.text:_atan)
                  1180f140    00000240                   : frcdivd.obj (.text:__frcdivd)
                  1180f380    00000200                   : frcaddd.obj (.text:__frcaddd)
                  1180f580    00000200                   : sqrt.obj (.text:_sqrt)
                  1180f780    000001e0                   : ldexp.obj (.text:_ldexp)
                  1180f960    000001c0                   : divd.obj (.text:__divd)
                  1180fb20    000001a0                   : imath40.obj (.text:__divul)
                  1180fcc0    000001a0                   : mpyd.obj (.text:__mpyd)
                  1180fe60    000001a0                   : frexp.obj (.text:_frexp)
                  11810000    00000180                   : addf.obj (.text:__addf)
                  11810180    00000180                   : atan2.obj (.text:_atan2)
                  11810300    00000160                   : addd.obj (.text:__addd)
                  11810460    00000140     omapl137_gpio.obj (.text)
                  118105a0    00000140     rts64plus.lib : divf.obj (.text:__divf)
                  118106e0    00000140                   : mpyf.obj (.text:__mpyf)
                  11810820    00000100                   : frcdivf.obj (.text:__frcdivf)
                  11810920    00000100                   : frcmpyd.obj (.text:__frcmpyd)
                  11810a20    00000100                   : round.obj (.text:__round)
                  11810b20    00000100                   : atoi.obj (.text:_atoi)
                  11810c20    00000100                   : atol.obj (.text:_atol)
                  11810d20    00000100                   : exit.obj (.text:_exit)
                  11810e20    000000e0                   : autoinit.obj (.text:__auto_init)
                  11810f00    000000e0                   : divi.obj (.text:__divi)
                  11810fe0    000000e0                   : memset.obj (.text:_memset)
                  118110c0    000000c0     sys_lib64.lib : timeout.obj (.text)
                  11811180    000000c0     rts64plus.lib : modf.obj (.text:_modf)
                  11811240    000000a0                   : cvtdf.obj (.text:__cvtdf)
                  118112e0    000000a0                   : imath40.obj (.text:__divli)
                  11811380    000000a0                   : fixdu.obj (.text:__fixdu)
                  11811420    000000a0                   : fixfu.obj (.text:__fixfu)
                  118114c0    000000a0                   : memcpy64.obj (.text:_memcpy)
                  11811560    000000a0                   : renormd.obj (.text:_renormd)
                  11811600    00000080                   : cmpd.obj (.text:__cmpd)
                  11811680    00000080                   : fixdi.obj (.text:__fixdi)
                  11811700    00000080                   : fixfi.obj (.text:__fixfi)
                  11811780    00000080                   : fltlif.obj (.text:__fltlif)
                  11811800    00000060                   : cvtfd.obj (.text:__cvtfd)
                  11811860    00000060                   : fltid.obj (.text:__fltid)
                  118118c0    00000060                   : fltif.obj (.text:__fltif)
                  11811920    00000060                   : boot.obj (.text:_c_int00)
                  11811980    00000060                   : ceil.obj (.text:_ceil)
                  118119e0    00000040                   : args_main.obj (.text:__args_main)
                  11811a20    00000040                   : fltud.obj (.text:__fltud)
                  11811a60    00000040                   : fltuf.obj (.text:__fltuf)
                  11811aa0    00000040                   : frcmpyf.obj (.text:__frcmpyf)
                  11811ae0    00000040                   : negd.obj (.text:__negd)
                  11811b20    00000040                   : negf.obj (.text:__negf)
                  11811b60    00000040                   : imath40.obj (.text:__remli)
                  11811ba0    00000040                   : imath40.obj (.text:__remul)
                  11811be0    00000040                   : subd.obj (.text:__subd)
                  11811c20    00000040                   : subf.obj (.text:__subf)
                  11811c60    00000020     vecs.obj (.text)
                  11811c80    00000020     rts64plus.lib : _lock.obj (.text:__nop)
                  11811ca0    00000020                   : trunc.obj (.text:__trunc)
                  11811cc0    00000020                   : exit.obj (.text:_abort)
                  11811ce0    00000020                   : atof.obj (.text:_atof)

.far       0    11811d00    000008ac     UNINITIALIZED
                  11811d00    00000470     main.obj (.far)
                  11812170    00000270     GPS_DVL.obj (.far)
                  118123e0    00000090     rts64plus.lib : exit.obj (.far)
                  11812470    00000060                   : atan.obj (.far)
                  118124d0    00000044     sys_lib64.lib : DSPexPC.obj (.far)
                  11812514    00000004     rts64plus.lib : errno.obj (.far)
                  11812518    00000040                   : sin.obj (.far)
                  11812558    00000040                   : cos.obj (.far)
                  11812598    00000008                   : _lock.obj (.far)
                  118125a0    00000005     sys_lib64.lib : flash.obj (.far)
                  118125a8    00000004     Atmel_SPI_Flash.obj (.far)

.stack     0    118125b0    00000800     UNINITIALIZED
                  118125b0    00000008     rts64plus.lib : boot.obj (.stack)

.cinit     0    11812db0    0000062c     
                  11812db0    0000022c     main.obj (.cinit)
                  11812fdc    00000004     --HOLE-- [fill = 0]
                  11812fe0    000001f0     GPS_DVL.obj (.cinit)
                  118131d0    00000070     rts64plus.lib : atan.obj (.cinit)
                  11813240    00000054     sys_lib64.lib : DSPexPC.obj (.cinit)
                  11813294    00000004     --HOLE-- [fill = 0]
                  11813298    00000048     rts64plus.lib : cos.obj (.cinit)
                  118132e0    00000048                   : sin.obj (.cinit)
                  11813328    0000002c                   : exit.obj (.cinit)
                  11813354    00000004     --HOLE-- [fill = 0]
                  11813358    0000002c     Atmel_SPI_Flash.obj (.cinit)
                  11813384    00000004     --HOLE-- [fill = 0]
                  11813388    0000001c     rts64plus.lib : _lock.obj (.cinit)
                  118133a4    00000004     --HOLE-- [fill = 0]
                  118133a8    0000000d     sys_lib64.lib : flash.obj (.cinit)
                  118133b5    00000003     --HOLE-- [fill = 0]
                  118133b8    0000000c     rts64plus.lib : errno.obj (.cinit)
                  118133c4    00000004     --HOLE-- [fill = 0]
                  118133c8    0000000c     SPI.obj (.cinit)
                  118133d4    00000008     --HOLE-- [fill = 0]

.const     0    118133e0    0000022c     
                  118133e0    00000101     rts64plus.lib : ctype.obj (.const)
                  118134e1    00000007     --HOLE-- [fill = 0]
                  118134e8    00000098                   : strtod.obj (.const)
                  11813580    00000030     GPS_DVL.obj (.const)
                  118135b0    0000002f     SPI.obj (.const)
                  118135df    00000001     --HOLE-- [fill = 0]
                  118135e0    00000014     sys_lib64.lib : flash.obj (.const)
                  118135f4    00000004     --HOLE-- [fill = 0]
                  118135f8    0000000c     Atmel_SPI_Flash.obj (.const)
                  11813604    00000004     --HOLE-- [fill = 0]
                  11813608    00000004     main.obj (.const)

.switch    0    1181360c    00000224     
                  1181360c    000001b8     GPS_DVL.obj (.switch)
                  118137c4    0000005c     sys_lib64.lib : DSPexPC.obj (.switch)
                  11813820    00000010     rts64plus.lib : frcdivd.obj (.switch)

.bss       0    11813830    000000c4     UNINITIALIZED
                  11813830    0000005a     GPS_DVL.obj (.bss)
                  1181388c    00000050     main.obj (.bss)
                  118138dc    0000000c     Atmel_SPI_Flash.obj (.bss)
                  118138e8    00000008     sys_lib64.lib : DSPexPC.obj (.bss)
                  118138f0    00000004     SPI.obj (.bss)


GLOBAL SYMBOLS: SORTED ALPHABETICALLY BY Name 

address    name
--------   ----
11813830   $bss
11813830   .bss
00000000   .data
11804000   .text
11811cc0   C$$EXIT
1180c1a0   _Atmel_Erase_Once
1180be6c   _Atmel_GlobalUnprotect
1180c26c   _Atmel_Muti4K_Erase
1180c128   _Atmel_Read
1180bf90   _Atmel_Write
1180be54   _Atmel_Write_Wnable
11806548   _CRC32Value
118065c8   _CalculateBlockCRC32
118120e0   _DRamFConData
11810460   _EVMOMAPL137_GPIO_setDirection
118104f0   _EVMOMAPL137_GPIO_setOutput
1180a5a0   _Execute_DownLoad
1180a370   _Execute_UpLoad
1180bc8c   _FLASHSpiInit
1180776c   _GPS_Course
11812018   _GpsDat
11807074   _Gps_pos_modify
11811fe8   _IMUData
11806670   _Init_DvlCom
11804000   _Init_GpsCom
1180d320   _OMAPL137_DSPINT_CLOSEALL
1180d2f8   _OMAPL137_DSPINT_OPENALL
1180d0c4   _OMAPL137_DSPINT_init
1180ce14   _OMAPL137_EMIFA_init
1180cbec   _OMAPL137_GPIO_init
1180ce44   _OMAPL137_PLL_init
1180d34c   _OMAPL137_PPSINT_CLOSE
1180d338   _OMAPL137_PPSINT_OPEN
1180cf54   _OMAPL137_PSC_init
1180ccf4   _OMAPL137_SYSCFG_init
1180d228   _OMAPL137_TIMER_init
118138c8   _P1
118138cc   _P3
118138d0   _P5
1180e214   _PSC0_lPSC_disable
1180e140   _PSC0_lPSC_enable
1180e3c4   _PSC1_lPSC_disable
1180e2ec   _PSC1_lPSC_enable
118082d4   _ReadGnssData
11806694   _Read_DVL
11804fa8   _Read_Gps_BESTB
11804078   _Read_Gps_PASHR
11805884   _Read_Gps_WRJ
11808030   _Speed_XYZ_to_BLH
1180c394   _SpiInit
1180ebe4   _UART_FIFOCLR
1180eb60   _UART_init
1181383c   _UTC
11807ac8   _XYZ_to_BLH
00000800   __STACK_SIZE
ffffffff   ___binit__
11813830   ___bss__
ffffffff   ___c_args__
11812db0   ___cinit__
00000000   ___data__
00000000   ___edata__
118138f4   ___end__
11811d00   ___etext__
ffffffff   ___pinit__
11804000   ___text__
11810300   __addd
11810000   __addf
118119e0   __args_main
11810e20   __auto_init
11812468   __cleanup_ptr
11811600   __cmpd
118133e0   __ctypes_
11811240   __cvtdf
11811800   __cvtfd
1180f960   __divd
118105a0   __divf
11810f00   __divi
118112e0   __divli
1180fb20   __divul
1181246c   __dtors_ptr
11811680   __fixdi
11811380   __fixdu
11811700   __fixfi
11811420   __fixfu
11811860   __fltid
118118c0   __fltif
11811780   __fltlif
11811a20   __fltud
11811a60   __fltuf
1180f380   __frcaddd
1180f140   __frcdivd
11810820   __frcdivf
11810920   __frcmpyd
11811aa0   __frcmpyf
11812598   __lock
1180fcc0   __mpyd
118106e0   __mpyf
11811ae0   __negd
11811b20   __negf
11811c80   __nop
11811b60   __remli
11811ba0   __remul
11810a20   __round
118125b0   __stack
11811be0   __subd
11811c20   __subf
11811ca0   __trunc
1181259c   __unlock
1180cbc0   __wait
1181388c   _a
11811cc0   _abort
11811dd0   _adbufH
11811d30   _adbufL
11811d80   _adbufM
118138ba   _adfifo_cnt
11806eb8   _ascii2hex
1180a844   _assemble_data
1180ee80   _atan
11810180   _atan2
11811ce0   _atof
11810b20   _atoi
11810c20   _atol
11813890   _b
11811d00   _buff_cmd
11813894   _c
11812270   _c1
11812318   _c1_dvl
118122a4   _c2i
118122ac   _c2ui
118122a8   _c2us
1180b88c   _c4touint
1181386c   _cChkRec_dvl
1181384a   _cChk_js
11813868   _cChk_js_dvl
11811920   _c_int00
11813844   _casegga
11813862   _casegga_dvl
11813846   _casevel
11813864   _casevel_dvl
11811980   _ceil
1180d98c   _chip_erase
1181386a   _ck_a_dvl
1181386b   _ck_b_dvl
118138a8   _cnt_1ms
118138a4   _cnt_1s
1181389c   _cnt_5ms
118138a0   _cnt_5s
118138b8   _cnt_cur
118138b9   _cnt_pre
1180a1ec   _command_DRq
1180a9ec   _command_link
1180a2c4   _command_status
1180ac98   _commu_link
1180aa90   _commu_link1
1180dd80   _cos
11813848   _crc_cnt_c1
11813866   _crc_cnt_c1_dvl
1181385c   _crc_err
118122a0   _crc_r
11812298   _data_dchar
11812290   _data_fchar
1180dad0   _data_polling
118122b0   _dvl_data
11812514   _errno
11810d20   _exit
1180b190   _ext_int04
1180b558   _ext_int05
1180b5b4   _ext_int06
1180b610   _ext_int07
11813840   _fV_earth_Kn
11811e30   _faccytemp
11811e40   _fgadata
11811e20   _fgyrotemp
118138ac   _flag_5ms
11813898   _flag_commu
118138b4   _flag_format
1180da14   _flash_program
1180dd24   _flash_read
1180e4a0   _fmod
118138b0   _frame_cnt
1180fe60   _frexp
11811f90   _g_dNavPn
11811f68   _g_dSumPn
11811fb8   _g_fpnImu
118138be   _g_ucCnt_1ms
11811e68   _g_ucUart1
118138bc   _g_ucflag_1ms
118138bd   _g_ucflag_5ms
118138c4   _g_uiSumimuCnt
118138c0   _g_uiTimer1ms_IMU
118125a0   _gp_num
11813860   _gps_ptr_dvl
118138bb   _gpstemp
11806f58   _gvmov
11813856   _hgt_rms
1180dc38   _highEA_conv
11811d20   _info_Version
11811d18   _info_fpga
11813852   _lat_rms
1180f780   _ldexp
11813854   _lon_rms
1180aee0   _main
118114c0   _memcpy
11810fe0   _memset
11811180   _modf
11813850   _msg_id
1181385a   _msg_len
11813858   _msg_len_r
1180ee00   _pUART_Recv
1180ec58   _pUART_Txmit
11809e40   _parse_command
1180a030   _parse_data
1180ecd8   _pfUART_Trans
1180ed84   _pfUART_Txmit
1180b8b0   _pntowa
11813870   _pos_time
1180c450   _read_MGZ310_Gyro
1180c898   _read_MSA8000D_Acc
11804020   _readnull_Com
11811560   _renormd
1180b66c   _save_send_f32TD
118124d0   _sector_addr
1180d8c0   _sector_erase
118138b2   _sframe_cnt
1180e800   _sin
1180c2e0   _spi1_xfer_simple
118138dc   _spiRegs
118138f0   _spiRegs1
1180f580   _sqrt
1180d360   _strtod
118110c0   _tUART_Recv
1180db64   _toggle_bit
1181385e   _ucRecdvl_Com
11803c20   _vector1
11803d40   _vector10
11803d60   _vector11
11803d80   _vector12
11803da0   _vector13
11803dc0   _vector14
11803de0   _vector15
11803c40   _vector2
11803c60   _vector3
11803c80   _vector4
11803ca0   _vector5
11803cc0   _vector6
11803ce0   _vector7
11803d00   _vector8
11803d20   _vector9
11803c00   _vectors
1180b9a0   _wait
ffffffff   binit
11812db0   cinit
00000000   edata
118138f4   end
11811d00   etext
ffffffff   pinit


GLOBAL SYMBOLS: SORTED BY Symbol Address 

address    name
--------   ----
00000000   .data
00000000   ___data__
00000000   ___edata__
00000000   edata
00000800   __STACK_SIZE
11803c00   _vectors
11803c20   _vector1
11803c40   _vector2
11803c60   _vector3
11803c80   _vector4
11803ca0   _vector5
11803cc0   _vector6
11803ce0   _vector7
11803d00   _vector8
11803d20   _vector9
11803d40   _vector10
11803d60   _vector11
11803d80   _vector12
11803da0   _vector13
11803dc0   _vector14
11803de0   _vector15
11804000   .text
11804000   _Init_GpsCom
11804000   ___text__
11804020   _readnull_Com
11804078   _Read_Gps_PASHR
11804fa8   _Read_Gps_BESTB
11805884   _Read_Gps_WRJ
11806548   _CRC32Value
118065c8   _CalculateBlockCRC32
11806670   _Init_DvlCom
11806694   _Read_DVL
11806eb8   _ascii2hex
11806f58   _gvmov
11807074   _Gps_pos_modify
1180776c   _GPS_Course
11807ac8   _XYZ_to_BLH
11808030   _Speed_XYZ_to_BLH
118082d4   _ReadGnssData
11809e40   _parse_command
1180a030   _parse_data
1180a1ec   _command_DRq
1180a2c4   _command_status
1180a370   _Execute_UpLoad
1180a5a0   _Execute_DownLoad
1180a844   _assemble_data
1180a9ec   _command_link
1180aa90   _commu_link1
1180ac98   _commu_link
1180aee0   _main
1180b190   _ext_int04
1180b558   _ext_int05
1180b5b4   _ext_int06
1180b610   _ext_int07
1180b66c   _save_send_f32TD
1180b88c   _c4touint
1180b8b0   _pntowa
1180b9a0   _wait
1180bc8c   _FLASHSpiInit
1180be54   _Atmel_Write_Wnable
1180be6c   _Atmel_GlobalUnprotect
1180bf90   _Atmel_Write
1180c128   _Atmel_Read
1180c1a0   _Atmel_Erase_Once
1180c26c   _Atmel_Muti4K_Erase
1180c2e0   _spi1_xfer_simple
1180c394   _SpiInit
1180c450   _read_MGZ310_Gyro
1180c898   _read_MSA8000D_Acc
1180cbc0   __wait
1180cbec   _OMAPL137_GPIO_init
1180ccf4   _OMAPL137_SYSCFG_init
1180ce14   _OMAPL137_EMIFA_init
1180ce44   _OMAPL137_PLL_init
1180cf54   _OMAPL137_PSC_init
1180d0c4   _OMAPL137_DSPINT_init
1180d228   _OMAPL137_TIMER_init
1180d2f8   _OMAPL137_DSPINT_OPENALL
1180d320   _OMAPL137_DSPINT_CLOSEALL
1180d338   _OMAPL137_PPSINT_OPEN
1180d34c   _OMAPL137_PPSINT_CLOSE
1180d360   _strtod
1180d8c0   _sector_erase
1180d98c   _chip_erase
1180da14   _flash_program
1180dad0   _data_polling
1180db64   _toggle_bit
1180dc38   _highEA_conv
1180dd24   _flash_read
1180dd80   _cos
1180e140   _PSC0_lPSC_enable
1180e214   _PSC0_lPSC_disable
1180e2ec   _PSC1_lPSC_enable
1180e3c4   _PSC1_lPSC_disable
1180e4a0   _fmod
1180e800   _sin
1180eb60   _UART_init
1180ebe4   _UART_FIFOCLR
1180ec58   _pUART_Txmit
1180ecd8   _pfUART_Trans
1180ed84   _pfUART_Txmit
1180ee00   _pUART_Recv
1180ee80   _atan
1180f140   __frcdivd
1180f380   __frcaddd
1180f580   _sqrt
1180f780   _ldexp
1180f960   __divd
1180fb20   __divul
1180fcc0   __mpyd
1180fe60   _frexp
11810000   __addf
11810180   _atan2
11810300   __addd
11810460   _EVMOMAPL137_GPIO_setDirection
118104f0   _EVMOMAPL137_GPIO_setOutput
118105a0   __divf
118106e0   __mpyf
11810820   __frcdivf
11810920   __frcmpyd
11810a20   __round
11810b20   _atoi
11810c20   _atol
11810d20   _exit
11810e20   __auto_init
11810f00   __divi
11810fe0   _memset
118110c0   _tUART_Recv
11811180   _modf
11811240   __cvtdf
118112e0   __divli
11811380   __fixdu
11811420   __fixfu
118114c0   _memcpy
11811560   _renormd
11811600   __cmpd
11811680   __fixdi
11811700   __fixfi
11811780   __fltlif
11811800   __cvtfd
11811860   __fltid
118118c0   __fltif
11811920   _c_int00
11811980   _ceil
118119e0   __args_main
11811a20   __fltud
11811a60   __fltuf
11811aa0   __frcmpyf
11811ae0   __negd
11811b20   __negf
11811b60   __remli
11811ba0   __remul
11811be0   __subd
11811c20   __subf
11811c80   __nop
11811ca0   __trunc
11811cc0   C$$EXIT
11811cc0   _abort
11811ce0   _atof
11811d00   ___etext__
11811d00   _buff_cmd
11811d00   etext
11811d18   _info_fpga
11811d20   _info_Version
11811d30   _adbufL
11811d80   _adbufM
11811dd0   _adbufH
11811e20   _fgyrotemp
11811e30   _faccytemp
11811e40   _fgadata
11811e68   _g_ucUart1
11811f68   _g_dSumPn
11811f90   _g_dNavPn
11811fb8   _g_fpnImu
11811fe8   _IMUData
11812018   _GpsDat
118120e0   _DRamFConData
11812270   _c1
11812290   _data_fchar
11812298   _data_dchar
118122a0   _crc_r
118122a4   _c2i
118122a8   _c2us
118122ac   _c2ui
118122b0   _dvl_data
11812318   _c1_dvl
11812468   __cleanup_ptr
1181246c   __dtors_ptr
118124d0   _sector_addr
11812514   _errno
11812598   __lock
1181259c   __unlock
118125a0   _gp_num
118125b0   __stack
11812db0   ___cinit__
11812db0   cinit
118133e0   __ctypes_
11813830   $bss
11813830   .bss
11813830   ___bss__
1181383c   _UTC
11813840   _fV_earth_Kn
11813844   _casegga
11813846   _casevel
11813848   _crc_cnt_c1
1181384a   _cChk_js
11813850   _msg_id
11813852   _lat_rms
11813854   _lon_rms
11813856   _hgt_rms
11813858   _msg_len_r
1181385a   _msg_len
1181385c   _crc_err
1181385e   _ucRecdvl_Com
11813860   _gps_ptr_dvl
11813862   _casegga_dvl
11813864   _casevel_dvl
11813866   _crc_cnt_c1_dvl
11813868   _cChk_js_dvl
1181386a   _ck_a_dvl
1181386b   _ck_b_dvl
1181386c   _cChkRec_dvl
11813870   _pos_time
1181388c   _a
11813890   _b
11813894   _c
11813898   _flag_commu
1181389c   _cnt_5ms
118138a0   _cnt_5s
118138a4   _cnt_1s
118138a8   _cnt_1ms
118138ac   _flag_5ms
118138b0   _frame_cnt
118138b2   _sframe_cnt
118138b4   _flag_format
118138b8   _cnt_cur
118138b9   _cnt_pre
118138ba   _adfifo_cnt
118138bb   _gpstemp
118138bc   _g_ucflag_1ms
118138bd   _g_ucflag_5ms
118138be   _g_ucCnt_1ms
118138c0   _g_uiTimer1ms_IMU
118138c4   _g_uiSumimuCnt
118138c8   _P1
118138cc   _P3
118138d0   _P5
118138dc   _spiRegs
118138f0   _spiRegs1
118138f4   ___end__
118138f4   end
ffffffff   ___binit__
ffffffff   ___c_args__
ffffffff   ___pinit__
ffffffff   binit
ffffffff   pinit

[256 symbols]
